(lp0
(lp1
a(lp2
a(lp3
a(lp4
a(lp5
a(lp6
a(lp7
a(lp8
a(lp9
a(lp10
a(lp11
a(lp12
a(lp13
a(lp14
a(lp15
a(lp16
a(lp17
a(lp18
a(lp19
a(lp20
a(lp21
a(lp22
a(lp23
a(lp24
a(lp25
a(lp26
a(lp27
a(lp28
a(lp29
a(lp30
a(lp31
a(lp32
a(lp33
a(lp34
a(lp35
a(lp36
a(lp37
a(lp38
a(lp39
a(lp40
a(lp41
a(lp42
a(lp43
a(lp44
a(lp45
a(lp46
a(lp47
a(lp48
a(lp49
a(lp50
a(lp51
a(lp52
a((lp53
(F786.0
F286.0
tp54
a(F651.0
F226.0
tp55
a(F602.0
F226.0
tp56
a(F495.0
F286.0
tp57
a(lp58
F1.0
aF0.2
atp59
a((lp60
(F809.0
F261.0
tp61
a(F689.0
F182.0
tp62
a(F558.0
F182.0
tp63
a(F450.0
F261.0
tp64
a(lp65
F1.4
aF0.3
atp66
a((lp67
(F634.0
F285.0
tp68
a(F637.0
F163.0
tp69
a(F619.0
F163.0
tp70
a(F448.0
F285.0
tp71
a(lp72
F1.0
aF0.2
atp73
a((lp74
(F883.0
F257.0
tp75
a(F805.0
F171.0
tp76
a(F631.0
F171.0
tp77
a(F566.0
F257.0
tp78
a(lp79
F1.3
aF0.6
atp80
a((lp81
(F887.0
F267.0
tp82
a(F734.0
F112.0
tp83
a(F651.0
F112.0
tp84
a(F476.0
F267.0
tp85
a(lp86
F1.3
aF0.3
atp87
a((lp88
(F802.0
F281.0
tp89
a(F678.0
F171.0
tp90
a(F564.0
F171.0
tp91
a(F459.0
F281.0
tp92
a(lp93
F1.4
aF0.5
atp94
a((lp95
(F835.0
F272.0
tp96
a(F698.0
F168.0
tp97
a(F563.0
F168.0
tp98
a(F441.0
F272.0
tp99
a(lp100
F1.2
aF0.6
atp101
a((lp102
(F745.0
F281.0
tp103
a(F640.0
F200.0
tp104
a(F592.0
F200.0
tp105
a(F479.0
F281.0
tp106
a(lp107
F1.3
aF0.3
atp108
a((lp109
(F719.0
F287.0
tp110
a(F633.0
F173.0
tp111
a(F602.0
F173.0
tp112
a(F537.0
F287.0
tp113
a(lp114
F1.3
aF0.3
atp115
a((lp116
(F802.0
F292.0
tp117
a(F634.0
F180.0
tp118
a(F593.0
F180.0
tp119
a(F447.0
F292.0
tp120
a(lp121
F1.3
aF0.2
atp122
a((lp123
(F734.0
F292.0
tp124
a(F660.0
F230.0
tp125
a(F594.0
F230.0
tp126
a(F525.0
F292.0
tp127
a(lp128
F1.1
aF0.3
atp129
a((lp130
(F835.0
F254.0
tp131
a(F679.0
F160.0
tp132
a(F583.0
F160.0
tp133
a(F437.0
F254.0
tp134
a(lp135
F1.3
aF0.3
atp136
a((lp137
(F844.0
F248.0
tp138
a(F650.0
F177.0
tp139
a(F563.0
F177.0
tp140
a(F360.0
F248.0
tp141
a(lp142
F1.3
aF0.3
atp143
a((lp144
(F874.0
F255.0
tp145
a(F673.0
F159.0
tp146
a(F563.0
F159.0
tp147
a(F351.0
F255.0
tp148
a(lp149
F1.4
aF0.3
atp150
a((lp151
(F941.0
F265.0
tp152
a(F720.0
F185.0
tp153
a(F605.0
F185.0
tp154
a(F437.0
F265.0
tp155
a(lp156
F1.4
aF0.2
atp157
a((lp158
(F961.0
F266.0
tp159
a(F743.0
F100.0
tp160
a(F680.0
F100.0
tp161
a(F487.0
F266.0
tp162
a(lp163
F1.4
aF0.2
atp164
a((lp165
(F888.0
F270.0
tp166
a(F709.0
F225.0
tp167
a(F612.0
F225.0
tp168
a(F418.0
F270.0
tp169
a(lp170
F1.3
aF0.2
atp171
a((lp172
(F811.0
F276.0
tp173
a(F665.0
F178.0
tp174
a(F535.0
F178.0
tp175
a(F392.0
F276.0
tp176
a(lp177
F1.3
aF0.3
atp178
a((lp179
(F868.0
F267.0
tp180
a(F630.0
F180.0
tp181
a(F594.0
F180.0
tp182
a(F418.0
F267.0
tp183
a(lp184
F1.4
aF0.2
atp185
a((lp186
(F869.0
F277.0
tp187
a(F837.0
F180.0
tp188
a(F716.0
F180.0
tp189
a(F718.0
F277.0
tp190
a(lp191
F1.3
aF0.4
atp192
a(lp193
a(lp194
a(lp195
a(lp196
a(lp197
a(lp198
a(lp199
a(lp200
a(lp201
a(lp202
a(lp203
a(lp204
a(lp205
a(lp206
a(lp207
a(lp208
a(lp209
a(lp210
a(lp211
a(lp212
a(lp213
a(lp214
a(lp215
a(lp216
a(lp217
a(lp218
a(lp219
a(lp220
a(lp221
a(lp222
a(lp223
a(lp224
a(lp225
a(lp226
a(lp227
a(lp228
a(lp229
a(lp230
a(lp231
a(lp232
a(lp233
a(lp234
a(lp235
a(lp236
a(lp237
a(lp238
a(lp239
a(lp240
a(lp241
a(lp242
a(lp243
a(lp244
a(lp245
a(lp246
a(lp247
a(lp248
a(lp249
a(lp250
a(lp251
a(lp252
a(lp253
a(lp254
a(lp255
a(lp256
a(lp257
a(lp258
a(lp259
a(lp260
a(lp261
a(lp262
a(lp263
a(lp264
a(lp265
a(lp266
a(lp267
a(lp268
a(lp269
a(lp270
a(lp271
a(lp272
a(lp273
a(lp274
a(lp275
a(lp276
a(lp277
a(lp278
a(lp279
a(lp280
a(lp281
a(lp282
a(lp283
a(lp284
a(lp285
a(lp286
a(lp287
a(lp288
a(lp289
a(lp290
a(lp291
a(lp292
a(lp293
a(lp294
a(lp295
a(lp296
a(lp297
a(lp298
a(lp299
a(lp300
a(lp301
a(lp302
a(lp303
a(lp304
a(lp305
a(lp306
a(lp307
a(lp308
a(lp309
a(lp310
a(lp311
a(lp312
a(lp313
a(lp314
a(lp315
a(lp316
a(lp317
a(lp318
a(lp319
a.