(lp0
(lp1
a(lp2
a(lp3
a(lp4
a(lp5
a(lp6
a(lp7
a(lp8
a(lp9
a(lp10
a(lp11
a(lp12
a(lp13
a(lp14
a(lp15
a(lp16
a(lp17
a(lp18
a(lp19
a(lp20
a(lp21
a(lp22
a(lp23
a(lp24
a(lp25
a(lp26
a(lp27
a(lp28
a(lp29
a(lp30
a(lp31
a(lp32
a(lp33
a(lp34
a(lp35
a(lp36
a(lp37
a(lp38
a(lp39
a(lp40
a(lp41
a(lp42
a(lp43
a(lp44
a(lp45
a(lp46
a(lp47
a(lp48
a(lp49
a(lp50
a(lp51
a(lp52
a((lp53
(F786.0
F286.0
tp54
a(F651.0
F226.0
tp55
a(F602.0
F226.0
tp56
a(F495.0
F286.0
tp57
a(lp58
F1.0
aF0.2
atp59
a((lp60
(F809.0
F261.0
tp61
a(F689.0
F182.0
tp62
a(F558.0
F182.0
tp63
a(F450.0
F261.0
tp64
a(lp65
F1.4
aF0.3
atp66
a((lp67
(F634.0
F285.0
tp68
a(F637.0
F163.0
tp69
a(F619.0
F163.0
tp70
a(F448.0
F285.0
tp71
a(lp72
F1.0
aF0.2
atp73
a((lp74
(F883.0
F257.0
tp75
a(F805.0
F171.0
tp76
a(F631.0
F171.0
tp77
a(F566.0
F257.0
tp78
a(lp79
F1.3
aF0.6
atp80
a((lp81
(F887.0
F267.0
tp82
a(F734.0
F112.0
tp83
a(F651.0
F112.0
tp84
a(F476.0
F267.0
tp85
a(lp86
F1.3
aF0.3
atp87
a((lp88
(F802.0
F281.0
tp89
a(F678.0
F171.0
tp90
a(F564.0
F171.0
tp91
a(F459.0
F281.0
tp92
a(lp93
F1.4
aF0.5
atp94
a((lp95
(F825.0
F290.0
tp96
a(F680.0
F197.0
tp97
a(F573.0
F197.0
tp98
a(F379.0
F290.0
tp99
a(lp100
F1.1
aF0.3
atp101
a((lp102
(F745.0
F281.0
tp103
a(F640.0
F200.0
tp104
a(F592.0
F200.0
tp105
a(F479.0
F281.0
tp106
a(lp107
F1.3
aF0.3
atp108
a((lp109
(F719.0
F287.0
tp110
a(F633.0
F173.0
tp111
a(F602.0
F173.0
tp112
a(F537.0
F287.0
tp113
a(lp114
F1.3
aF0.3
atp115
a((lp116
(F802.0
F292.0
tp117
a(F634.0
F180.0
tp118
a(F593.0
F180.0
tp119
a(F447.0
F292.0
tp120
a(lp121
F1.3
aF0.2
atp122
a((lp123
(F734.0
F292.0
tp124
a(F660.0
F230.0
tp125
a(F594.0
F230.0
tp126
a(F525.0
F292.0
tp127
a(lp128
F1.1
aF0.3
atp129
a((lp130
(F835.0
F254.0
tp131
a(F679.0
F160.0
tp132
a(F583.0
F160.0
tp133
a(F437.0
F254.0
tp134
a(lp135
F1.3
aF0.3
atp136
a((lp137
(F844.0
F248.0
tp138
a(F650.0
F177.0
tp139
a(F563.0
F177.0
tp140
a(F360.0
F248.0
tp141
a(lp142
F1.3
aF0.3
atp143
a((lp144
(F874.0
F255.0
tp145
a(F673.0
F159.0
tp146
a(F563.0
F159.0
tp147
a(F351.0
F255.0
tp148
a(lp149
F1.4
aF0.3
atp150
a((lp151
(F941.0
F265.0
tp152
a(F720.0
F185.0
tp153
a(F605.0
F185.0
tp154
a(F437.0
F265.0
tp155
a(lp156
F1.4
aF0.2
atp157
a((lp158
(F961.0
F266.0
tp159
a(F743.0
F100.0
tp160
a(F680.0
F100.0
tp161
a(F487.0
F266.0
tp162
a(lp163
F1.4
aF0.2
atp164
a((lp165
(F888.0
F270.0
tp166
a(F709.0
F225.0
tp167
a(F612.0
F225.0
tp168
a(F418.0
F270.0
tp169
a(lp170
F1.3
aF0.2
atp171
a((lp172
(F811.0
F276.0
tp173
a(F665.0
F178.0
tp174
a(F535.0
F178.0
tp175
a(F392.0
F276.0
tp176
a(lp177
F1.3
aF0.3
atp178
a((lp179
(F868.0
F267.0
tp180
a(F630.0
F180.0
tp181
a(F594.0
F180.0
tp182
a(F418.0
F267.0
tp183
a(lp184
F1.4
aF0.2
atp185
a((lp186
(F869.0
F277.0
tp187
a(F837.0
F180.0
tp188
a(F716.0
F180.0
tp189
a(F718.0
F277.0
tp190
a(lp191
F1.3
aF0.4
atp192
a((lp193
(F782.0
F306.0
tp194
a(F634.0
F214.0
tp195
a(F595.0
F214.0
tp196
a(F345.0
F306.0
tp197
a(lp198
F1.0
aF0.2
atp199
a((lp200
(F754.0
F274.0
tp201
a(F413.0
F141.0
tp202
a(F354.0
F141.0
tp203
a(F424.0
F274.0
tp204
a(lp205
F1.5
aF0.4
atp206
a((lp207
(F677.0
F285.0
tp208
a(F651.0
F157.0
tp209
a(F572.0
F157.0
tp210
a(F554.0
F285.0
tp211
a(lp212
F1.1
aF0.2
atp213
a((lp214
(F1014.0
F257.0
tp215
a(F715.0
F62.0
tp216
a(F598.0
F62.0
tp217
a(F290.0
F257.0
tp218
a(lp219
F1.5
aF0.2
atp220
a((lp221
(F952.0
F307.0
tp222
a(F667.0
F195.0
tp223
a(F570.0
F195.0
tp224
a(F308.0
F307.0
tp225
a(lp226
F1.6
aF0.2
atp227
a((lp228
(F773.0
F260.0
tp229
a(F453.0
F164.0
tp230
a(F428.0
F164.0
tp231
a(F238.0
F260.0
tp232
a(lp233
F1.7
aF0.1
atp234
a((lp235
(F924.0
F277.0
tp236
a(F747.0
F226.0
tp237
a(F662.0
F226.0
tp238
a(F559.0
F277.0
tp239
a(lp240
F1.4
aF0.2
atp241
a((lp242
(F766.0
F291.0
tp243
a(F640.0
F208.0
tp244
a(F611.0
F208.0
tp245
a(F411.0
F291.0
tp246
a(lp247
F1.0
aF0.2
atp248
a((lp249
(F866.0
F272.0
tp250
a(F678.0
F196.0
tp251
a(F560.0
F196.0
tp252
a(F469.0
F272.0
tp253
a(lp254
F1.0
aF0.4
atp255
a((lp256
(F942.0
F258.0
tp257
a(F796.0
F165.0
tp258
a(F718.0
F165.0
tp259
a(F555.0
F258.0
tp260
a(lp261
F1.5
aF0.2
atp262
a((lp263
(F972.0
F294.0
tp264
a(F743.0
F187.0
tp265
a(F510.0
F187.0
tp266
a(F410.0
F294.0
tp267
a(lp268
F1.4
aF0.4
atp269
a((lp270
(F811.0
F275.0
tp271
a(F656.0
F199.0
tp272
a(F590.0
F199.0
tp273
a(F367.0
F275.0
tp274
a(lp275
F1.2
aF0.2
atp276
a((lp277
(F922.0
F268.0
tp278
a(F814.0
F150.0
tp279
a(F732.0
F150.0
tp280
a(F487.0
F268.0
tp281
a(lp282
F1.6
aF0.2
atp283
a((lp284
(F896.0
F278.0
tp285
a(F760.0
F155.0
tp286
a(F663.0
F155.0
tp287
a(F466.0
F278.0
tp288
a(lp289
F1.3
aF0.4
atp290
a((lp291
(F975.0
F280.0
tp292
a(F869.0
F209.0
tp293
a(F702.0
F209.0
tp294
a(F629.0
F280.0
tp295
a(lp296
F1.4
aF0.3
atp297
a(lp298
a(lp299
a(lp300
a(lp301
a(lp302
a(lp303
a(lp304
a(lp305
a(lp306
a(lp307
a(lp308
a(lp309
a(lp310
a(lp311
a(lp312
a(lp313
a(lp314
a(lp315
a(lp316
a(lp317
a(lp318
a(lp319
a(lp320
a(lp321
a(lp322
a(lp323
a(lp324
a(lp325
a(lp326
a(lp327
a(lp328
a(lp329
a(lp330
a(lp331
a(lp332
a(lp333
a(lp334
a(lp335
a(lp336
a(lp337
a(lp338
a(lp339
a(lp340
a(lp341
a(lp342
a(lp343
a(lp344
a(lp345
a(lp346
a(lp347
a(lp348
a(lp349
a(lp350
a(lp351
a(lp352
a(lp353
a(lp354
a(lp355
a(lp356
a(lp357
a(lp358
a(lp359
a(lp360
a(lp361
a(lp362
a(lp363
a(lp364
a(lp365
a(lp366
a(lp367
a(lp368
a(lp369
a(lp370
a(lp371
a(lp372
a(lp373
a(lp374
a(lp375
a(lp376
a(lp377
a(lp378
a(lp379
a(lp380
a(lp381
a(lp382
a(lp383
a(lp384
a(lp385
a(lp386
a(lp387
a(lp388
a(lp389
a(lp390
a(lp391
a(lp392
a(lp393
a(lp394
a(lp395
a(lp396
a(lp397
a(lp398
a(lp399
a(lp400
a(lp401
a(lp402
a(lp403
a(lp404
a(lp405
a(lp406
a(lp407
a(lp408
a(lp409
a.