(lp0
(lp1
a(lp2
a(lp3
a(lp4
a(lp5
a(lp6
a(lp7
a(lp8
a(lp9
a(lp10
a(lp11
a(lp12
a(lp13
a(lp14
a(lp15
a(lp16
a(lp17
a(lp18
a(lp19
a(lp20
a(lp21
a(lp22
a(lp23
a(lp24
a(lp25
a(lp26
a(lp27
a(lp28
a(lp29
a(lp30
a(lp31
a(lp32
a(lp33
a(lp34
a(lp35
a(lp36
a(lp37
a(lp38
a(lp39
a(lp40
a(lp41
a(lp42
a(lp43
a(lp44
a(lp45
a(lp46
a(lp47
a(lp48
a(lp49
a(lp50
a(lp51
a(lp52
a((lp53
(F786.0
F286.0
tp54
a(F651.0
F226.0
tp55
a(F602.0
F226.0
tp56
a(F495.0
F286.0
tp57
a(lp58
F1.0
aF0.2
atp59
a(lp60
a(lp61
a(lp62
a(lp63
a(lp64
a((lp65
(F835.0
F272.0
tp66
a(F698.0
F168.0
tp67
a(F563.0
F168.0
tp68
a(F441.0
F272.0
tp69
a(lp70
F1.2
aF0.6
atp71
a(lp72
a(lp73
a(lp74
a((lp75
(F757.0
F299.0
tp76
a(F660.0
F229.0
tp77
a(F592.0
F229.0
tp78
a(F466.0
F299.0
tp79
a(lp80
F1.0
aF0.3
atp81
a(lp82
a(lp83
a(lp84
a(lp85
a(lp86
a(lp87
a(lp88
a(lp89
a(lp90
a(lp91
a(lp92
a(lp93
a(lp94
a(lp95
a(lp96
a(lp97
a(lp98
a(lp99
a(lp100
a(lp101
a(lp102
a(lp103
a(lp104
a(lp105
a(lp106
a(lp107
a(lp108
a(lp109
a(lp110
a(lp111
a(lp112
a(lp113
a(lp114
a(lp115
a(lp116
a(lp117
a(lp118
a(lp119
a(lp120
a(lp121
a(lp122
a(lp123
a(lp124
a(lp125
a(lp126
a(lp127
a(lp128
a(lp129
a(lp130
a(lp131
a(lp132
a(lp133
a(lp134
a(lp135
a(lp136
a(lp137
a(lp138
a(lp139
a(lp140
a(lp141
a(lp142
a(lp143
a(lp144
a(lp145
a(lp146
a(lp147
a(lp148
a(lp149
a(lp150
a(lp151
a(lp152
a(lp153
a(lp154
a(lp155
a(lp156
a(lp157
a(lp158
a(lp159
a(lp160
a(lp161
a(lp162
a(lp163
a(lp164
a(lp165
a(lp166
a(lp167
a(lp168
a(lp169
a(lp170
a(lp171
a(lp172
a(lp173
a(lp174
a(lp175
a(lp176
a(lp177
a(lp178
a(lp179
a(lp180
a(lp181
a(lp182
a(lp183
a(lp184
a(lp185
a(lp186
a(lp187
a(lp188
a(lp189
a(lp190
a(lp191
a(lp192
a(lp193
a(lp194
a(lp195
a(lp196
a(lp197
a(lp198
a(lp199
a(lp200
a(lp201
a(lp202
a(lp203
a(lp204
a(lp205
a(lp206
a(lp207
a(lp208
a(lp209
a(lp210
a(lp211
a(lp212
a(lp213
a(lp214
a(lp215
a(lp216
a(lp217
a.